target datalayout = "e-m:e-p270:32:32-p271:32:32-p272:64:64-i64:64-i128:128-f80:128-n8:16:32:64-S128"
target triple = "x86_64-unknown-linux-gnu"

%"struct.node::AssertionInfo" = type { ptr, ptr, ptr }

@_ZZN4node6crypto7NodeBIO7FromBIOEP6bio_stE4args = internal constant %"struct.node::AssertionInfo" { ptr @.str.35, ptr @.str.36, ptr @.str.37 }, align 8

; Function Attrs: mustprogress nounwind uwtable
define dso_local noundef ptr @_ZN4node6crypto7NodeBIO7FromBIOEP6bio_st(ptr noundef %bio) #4 align 2 {
entry:
  %bio.addr = alloca ptr, align 8
  store ptr %bio, ptr %bio.addr, align 8
  br label %do.body

do.body:                                          ; preds = %entry
  %0 = load ptr, ptr %bio.addr, align 8
  %call = call ptr @BIO_get_data(ptr noundef %0)
  %cmp = icmp ne ptr %call, null
  %lnot = xor i1 %cmp, true
  %lnot1 = xor i1 %lnot, true
  %lnot2 = xor i1 %lnot1, true
  br i1 %lnot2, label %if.then, label %if.end

if.then:                                          ; preds = %do.body
  br label %do.body3

do.body3:                                         ; preds = %if.then
  call void @_ZN4node6AssertERKNS_13AssertionInfoE(ptr noundef nonnull align 8 dereferenceable(24) @_ZZN4node6crypto7NodeBIO7FromBIOEP6bio_stE4args)
  call void @abort() #12
  unreachable

do.end:                                           ; No predecessors!
  br label %if.end

if.end:                                           ; preds = %do.end, %do.body
  br label %do.end4

do.end4:                                          ; preds = %if.end
  %1 = load ptr, ptr %bio.addr, align 8
  %call5 = call ptr @BIO_get_data(ptr noundef %1)
  ret ptr %call5
}

; Function Attrs: mustprogress nounwind uwtable
define dso_local noundef i32 @_ZN4node6crypto7NodeBIO5WriteEP6bio_stPKci(ptr noundef %bio, ptr noundef %data, i32 noundef %len) #4 align 2 {
entry:
  %bio.addr = alloca ptr, align 8
  %data.addr = alloca ptr, align 8
  %len.addr = alloca i32, align 4
  store ptr %bio, ptr %bio.addr, align 8
  store ptr %data, ptr %data.addr, align 8
  store i32 %len, ptr %len.addr, align 4
  %0 = load ptr, ptr %bio.addr, align 8
  call void @BIO_clear_flags(ptr noundef %0, i32 noundef 15)
  %1 = load ptr, ptr %bio.addr, align 8
  %call = call noundef ptr @_ZN4node6crypto7NodeBIO7FromBIOEP6bio_st(ptr noundef %1)
  %2 = load ptr, ptr %data.addr, align 8
  %3 = load i32, ptr %len.addr, align 4
  %conv = sext i32 %3 to i64
  call void @_ZN4node6crypto7NodeBIO5WriteEPKcm(ptr noundef nonnull align 8 dereferenceable(64) %call, ptr noundef %2, i64 noundef %conv)
  %4 = load i32, ptr %len.addr, align 4
  ret i32 %4
}

; Function Attrs: mustprogress nounwind uwtable
define dso_local noundef i32 @_ZN4node6crypto7NodeBIO4PutsEP6bio_stPKc(ptr noundef %bio, ptr noundef %str) #4 align 2 {
entry:
  %bio.addr = alloca ptr, align 8
  %str.addr = alloca ptr, align 8
  store ptr %bio, ptr %bio.addr, align 8
  store ptr %str, ptr %str.addr, align 8
  %0 = load ptr, ptr %bio.addr, align 8
  %1 = load ptr, ptr %str.addr, align 8
  %2 = load ptr, ptr %str.addr, align 8
  %call = call i64 @strlen(ptr noundef %2) #14
  %conv = trunc i64 %call to i32
  %call1 = call noundef i32 @_ZN4node6crypto7NodeBIO5WriteEP6bio_stPKci(ptr noundef %0, ptr noundef %1, i32 noundef %conv)
  ret i32 %call1
}