; Function Attrs: mustprogress nounwind uwtable
define dso_local noundef i32 @_ZN4node6crypto7NodeBIO4PutsEP6bio_stPKc(ptr noundef %bio, ptr nocapture noundef readonly %str) #3 align 2 {
entry:
  %call = tail call i64 @strlen(ptr noundef nonnull dereferenceable(1) %str) #19
  tail call void @BIO_clear_flags(ptr noundef %bio, i32 noundef 15) #16
  %call.i.i = tail call ptr @BIO_get_data(ptr noundef %bio) #16
  %cmp.not.i.i = icmp eq ptr %call.i.i, null
  br i1 %cmp.not.i.i, label %do.body3.i.i, label %_ZN4node6crypto7NodeBIO5WriteEP6bio_stPKci.exit

do.body3.i.i:                                     ; preds = %entry
  tail call void @_ZN4node6AssertERKNS_13AssertionInfoE(ptr noundef nonnull align 8 dereferenceable(24) @_ZZN4node6crypto7NodeBIO7FromBIOEP6bio_stE4args) #16
  tail call void @abort() #17
  unreachable

_ZN4node6crypto7NodeBIO5WriteEP6bio_stPKci.exit:  ; preds = %entry
  %conv = trunc i64 %call to i32
  %call5.i.i = tail call noundef ptr @BIO_get_data(ptr noundef %bio) #16
  %sext = shl i64 %call, 32
  %conv.i = ashr exact i64 %sext, 32
  tail call void @_ZN4node6crypto7NodeBIO5WriteEPKcm(ptr noundef nonnull align 8 dereferenceable(64) %call5.i.i, ptr noundef %str, i64 noundef %conv.i)
  ret i32 %conv
}